(dp1
S'FONCTION PUBLIQUE HOSPITALIERE'
p2
(dp3
sS'FONCTION PUBLIQUE TERRITORIALE'
p4
(dp5
S'ADJOINT TECHNIQUE DE 2EME CLASSE'
p6
(dp7
S'2006-01-11'
p8
(lp9
(I2014
S'Adjoint  technique de 2\xe8me classe'
p10
tp11
asss.